target datalayout = "e-m:e-p270:32:32-p271:32:32-p272:64:64-i64:64-i128:128-f80:128-n8:16:32:64-S128"
target triple = "x86_64-pc-linux-gnu"

%struct.SDLTest_TextWindow = type { %struct.SDL_FRect, i32, i32, ptr }
%struct.SDL_FRect = type { float, float, float, float }

; Function Attrs: nounwind uwtable
define dso_local void @SDLTest_TextWindowClear(ptr noundef %0) #0 {
  %2 = alloca ptr, align 8
  %3 = alloca i32, align 4
  store ptr %0, ptr %2, align 8
  call void @llvm.lifetime.start.p0(i64 4, ptr %3) #7
  store i32 0, ptr %3, align 4
  br label %4

4:                                                ; preds = %34, %1
  %5 = load i32, ptr %3, align 4
  %6 = load ptr, ptr %2, align 8
  %7 = getelementptr inbounds nuw %struct.SDLTest_TextWindow, ptr %6, i32 0, i32 2
  %8 = load i32, ptr %7, align 4
  %9 = icmp slt i32 %5, %8
  br i1 %9, label %10, label %37

10:                                               ; preds = %4
  %11 = load ptr, ptr %2, align 8
  %12 = getelementptr inbounds nuw %struct.SDLTest_TextWindow, ptr %11, i32 0, i32 3
  %13 = load ptr, ptr %12, align 8
  %14 = load i32, ptr %3, align 4
  %15 = sext i32 %14 to i64
  %16 = getelementptr inbounds ptr, ptr %13, i64 %15
  %17 = load ptr, ptr %16, align 8
  %18 = icmp ne ptr %17, null
  br i1 %18, label %19, label %33

19:                                               ; preds = %10
  %20 = load ptr, ptr %2, align 8
  %21 = getelementptr inbounds nuw %struct.SDLTest_TextWindow, ptr %20, i32 0, i32 3
  %22 = load ptr, ptr %21, align 8
  %23 = load i32, ptr %3, align 4
  %24 = sext i32 %23 to i64
  %25 = getelementptr inbounds ptr, ptr %22, i64 %24
  %26 = load ptr, ptr %25, align 8
  call void @SDL_free(ptr noundef %26)
  %27 = load ptr, ptr %2, align 8
  %28 = getelementptr inbounds nuw %struct.SDLTest_TextWindow, ptr %27, i32 0, i32 3
  %29 = load ptr, ptr %28, align 8
  %30 = load i32, ptr %3, align 4
  %31 = sext i32 %30 to i64
  %32 = getelementptr inbounds ptr, ptr %29, i64 %31
  store ptr null, ptr %32, align 8
  br label %33

33:                                               ; preds = %19, %10
  br label %34

34:                                               ; preds = %33
  %35 = load i32, ptr %3, align 4
  %36 = add nsw i32 %35, 1
  store i32 %36, ptr %3, align 4
  br label %4, !llvm.loop !9

37:                                               ; preds = %4
  %38 = load ptr, ptr %2, align 8
  %39 = getelementptr inbounds nuw %struct.SDLTest_TextWindow, ptr %38, i32 0, i32 1
  store i32 0, ptr %39, align 8
  call void @llvm.lifetime.end.p0(i64 4, ptr %3) #7
  ret void
}