; Function Attrs: nounwind uwtable
define dso_local void @SDLTest_TextWindowClear(ptr noundef captures(none) %0) local_unnamed_addr #0 {
  %2 = getelementptr inbounds nuw i8, ptr %0, i64 20
  %3 = load i32, ptr %2, align 4
  %4 = icmp sgt i32 %3, 0
  br i1 %4, label %.lr.ph, label %._crit_edge

.lr.ph:                                           ; preds = %1
  %5 = getelementptr inbounds nuw i8, ptr %0, i64 24
  br label %6

6:                                                ; preds = %.lr.ph, %14
  %7 = phi i32 [ %3, %.lr.ph ], [ %15, %14 ]
  %indvars.iv = phi i64 [ 0, %.lr.ph ], [ %indvars.iv.next, %14 ]
  %8 = load ptr, ptr %5, align 8
  %9 = getelementptr inbounds nuw ptr, ptr %8, i64 %indvars.iv
  %10 = load ptr, ptr %9, align 8
  %.not = icmp eq ptr %10, null
  br i1 %.not, label %14, label %11

11:                                               ; preds = %6
  tail call void @SDL_free(ptr noundef nonnull %10) #8
  %12 = load ptr, ptr %5, align 8
  %13 = getelementptr inbounds nuw ptr, ptr %12, i64 %indvars.iv
  store ptr null, ptr %13, align 8
  %.pre = load i32, ptr %2, align 4
  br label %14

14:                                               ; preds = %6, %11
  %15 = phi i32 [ %7, %6 ], [ %.pre, %11 ]
  %indvars.iv.next = add nuw nsw i64 %indvars.iv, 1
  %16 = sext i32 %15 to i64
  %17 = icmp slt i64 %indvars.iv.next, %16
  br i1 %17, label %6, label %._crit_edge, !llvm.loop !7

._crit_edge:                                      ; preds = %14, %1
  %18 = getelementptr inbounds nuw i8, ptr %0, i64 16
  store i32 0, ptr %18, align 8
  ret void
}